target datalayout = "e-m:e-p270:32:32-p271:32:32-p272:64:64-i64:64-i128:128-f80:128-n8:16:32:64-S128"
target triple = "x86_64-pc-linux-gnu"

%struct.AVFormatContext = type { ptr, ptr, ptr, ptr, ptr, i32, i32, ptr, i32, ptr, i32, ptr, ptr, i64, i64, i64, i32, i32, i32, i64, i64, ptr, i32, i32, ptr, i32, i32, i32, i32, ptr, i64, i32, i32, %struct.AVIOInterruptCB, i32, i32, i32, i32, i64, i32, i32, i32, i32, i32, i32, i32, i32, i32, i32, i32, i32, i64, i32, i32, i32, i32, i32, ptr, ptr, ptr, ptr, i32, ptr, ptr, ptr, ptr, i32, ptr, ptr, i64, ptr, ptr, ptr, i64 }
%struct.AVIOInterruptCB = type { ptr, ptr }
%struct.FFOutputFormat = type { %struct.AVOutputFormat, i32, i32, ptr, ptr, ptr, ptr, ptr, ptr, ptr, ptr, ptr, ptr, ptr, ptr }
%struct.AVOutputFormat = type { ptr, ptr, ptr, ptr, i32, i32, i32, i32, ptr, ptr }
%struct.FFFormatContext = type { %struct.AVFormatContext, i32, %struct.PacketList, i64, ptr, ptr, i32, ptr, i32 }
%struct.PacketList = type { ptr, ptr }
%struct.AVPacket = type { ptr, i64, i64, ptr, i32, i32, i32, ptr, i32, i64, i64, ptr, ptr, %struct.AVRational }
%struct.AVRational = type { i32, i32 }
%struct.AVIOContext = type { ptr, ptr, i32, ptr, ptr, ptr, ptr, ptr, ptr, i64, i32, i32, i32, i32, i32, i64, ptr, ptr, ptr, ptr, i32, i32, ptr, ptr, ptr, i32, ptr, i64, i64 }

; Function Attrs: nounwind uwtable
define internal void @flush_if_needed(ptr noundef %0) #0 {
  %2 = alloca ptr, align 8
  store ptr %0, ptr %2, align 8, !tbaa !14
  %3 = load ptr, ptr %2, align 8, !tbaa !14
  %4 = getelementptr inbounds nuw %struct.AVFormatContext, ptr %3, i32 0, i32 4
  %5 = load ptr, ptr %4, align 8, !tbaa !124
  %6 = icmp ne ptr %5, null
  br i1 %6, label %7, label %48

7:                                                ; preds = %1
  %8 = load ptr, ptr %2, align 8, !tbaa !14
  %9 = getelementptr inbounds nuw %struct.AVFormatContext, ptr %8, i32 0, i32 4
  %10 = load ptr, ptr %9, align 8, !tbaa !124
  %11 = getelementptr inbounds nuw %struct.AVIOContext, ptr %10, i32 0, i32 11
  %12 = load i32, ptr %11, align 4, !tbaa !125
  %13 = icmp sge i32 %12, 0
  br i1 %13, label %14, label %48

14:                                               ; preds = %7
  %15 = load ptr, ptr %2, align 8, !tbaa !14
  %16 = getelementptr inbounds nuw %struct.AVFormatContext, ptr %15, i32 0, i32 54
  %17 = load i32, ptr %16, align 8, !tbaa !127
  %18 = icmp eq i32 %17, 1
  br i1 %18, label %25, label %19

19:                                               ; preds = %14
  %20 = load ptr, ptr %2, align 8, !tbaa !14
  %21 = getelementptr inbounds nuw %struct.AVFormatContext, ptr %20, i32 0, i32 18
  %22 = load i32, ptr %21, align 8, !tbaa !104
  %23 = and i32 %22, 512
  %24 = icmp ne i32 %23, 0
  br i1 %24, label %25, label %29

25:                                               ; preds = %19, %14
  %26 = load ptr, ptr %2, align 8, !tbaa !14
  %27 = getelementptr inbounds nuw %struct.AVFormatContext, ptr %26, i32 0, i32 4
  %28 = load ptr, ptr %27, align 8, !tbaa !124
  call void @avio_flush(ptr noundef %28)
  br label %47

29:                                               ; preds = %19
  %30 = load ptr, ptr %2, align 8, !tbaa !14
  %31 = getelementptr inbounds nuw %struct.AVFormatContext, ptr %30, i32 0, i32 54
  %32 = load i32, ptr %31, align 8, !tbaa !127
  %33 = icmp ne i32 %32, 0
  br i1 %33, label %34, label %46

34:                                               ; preds = %29
  %35 = load ptr, ptr %2, align 8, !tbaa !14
  %36 = getelementptr inbounds nuw %struct.AVFormatContext, ptr %35, i32 0, i32 2
  %37 = load ptr, ptr %36, align 8, !tbaa !18
  %38 = getelementptr inbounds nuw %struct.AVOutputFormat, ptr %37, i32 0, i32 7
  %39 = load i32, ptr %38, align 4, !tbaa !122
  %40 = and i32 %39, 1
  %41 = icmp ne i32 %40, 0
  br i1 %41, label %46, label %42

42:                                               ; preds = %34
  %43 = load ptr, ptr %2, align 8, !tbaa !14
  %44 = getelementptr inbounds nuw %struct.AVFormatContext, ptr %43, i32 0, i32 4
  %45 = load ptr, ptr %44, align 8, !tbaa !124
  call void @avio_write_marker(ptr noundef %45, i64 noundef -9223372036854775808, i32 noundef 5)
  br label %46

46:                                               ; preds = %42, %34, %29
  br label %47

47:                                               ; preds = %46, %25
  br label %48

48:                                               ; preds = %47, %7, %1
  ret void
}

; Function Attrs: inlinehint nounwind uwtable
define internal ptr @ffofmt(ptr noundef %0) #3 {
  %2 = alloca ptr, align 8
  store ptr %0, ptr %2, align 8, !tbaa !10
  %3 = load ptr, ptr %2, align 8, !tbaa !10
  ret ptr %3
}

; Function Attrs: alwaysinline nounwind uwtable
define internal ptr @ffformatcontext(ptr noundef %0) #4 {
  %2 = alloca ptr, align 8
  store ptr %0, ptr %2, align 8, !tbaa !14
  %3 = load ptr, ptr %2, align 8, !tbaa !14
  ret ptr %3
}

; Function Attrs: nounwind uwtable
define i32 @av_write_frame(ptr noundef %0, ptr noundef %1) #0 {
  %3 = alloca i32, align 4
  %4 = alloca ptr, align 8
  %5 = alloca ptr, align 8
  %6 = alloca ptr, align 8
  %7 = alloca ptr, align 8
  %8 = alloca i32, align 4
  %9 = alloca i32, align 4
  store ptr %0, ptr %4, align 8, !tbaa !14
  store ptr %1, ptr %5, align 8, !tbaa !128
  call void @llvm.lifetime.start.p0(i64 8, ptr %6) #11
  %10 = load ptr, ptr %4, align 8, !tbaa !14
  %11 = call ptr @ffformatcontext(ptr noundef %10)
  store ptr %11, ptr %6, align 8, !tbaa !112
  call void @llvm.lifetime.start.p0(i64 8, ptr %7) #11
  %12 = load ptr, ptr %6, align 8, !tbaa !112
  %13 = getelementptr inbounds nuw %struct.FFFormatContext, ptr %12, i32 0, i32 4
  %14 = load ptr, ptr %13, align 8, !tbaa !162
  store ptr %14, ptr %7, align 8, !tbaa !128
  call void @llvm.lifetime.start.p0(i64 4, ptr %8) #11
  %15 = load ptr, ptr %5, align 8, !tbaa !128
  %16 = icmp ne ptr %15, null
  br i1 %16, label %59, label %17

17:                                               ; preds = %2
  %18 = load ptr, ptr %4, align 8, !tbaa !14
  %19 = getelementptr inbounds nuw %struct.AVFormatContext, ptr %18, i32 0, i32 2
  %20 = load ptr, ptr %19, align 8, !tbaa !18
  %21 = call ptr @ffofmt(ptr noundef %20)
  %22 = getelementptr inbounds nuw %struct.FFOutputFormat, ptr %21, i32 0, i32 2
  %23 = load i32, ptr %22, align 4, !tbaa !77
  %24 = and i32 %23, 2
  %25 = icmp ne i32 %24, 0
  br i1 %25, label %26, label %58

26:                                               ; preds = %17
  %27 = load ptr, ptr %4, align 8, !tbaa !14
  %28 = getelementptr inbounds nuw %struct.AVFormatContext, ptr %27, i32 0, i32 2
  %29 = load ptr, ptr %28, align 8, !tbaa !18
  %30 = call ptr @ffofmt(ptr noundef %29)
  %31 = getelementptr inbounds nuw %struct.FFOutputFormat, ptr %30, i32 0, i32 4
  %32 = load ptr, ptr %31, align 8, !tbaa !163
  %33 = load ptr, ptr %4, align 8, !tbaa !14
  %34 = call i32 %32(ptr noundef %33, ptr noundef null)
  store i32 %34, ptr %8, align 4, !tbaa !16
  %35 = load ptr, ptr %4, align 8, !tbaa !14
  call void @flush_if_needed(ptr noundef %35)
  %36 = load i32, ptr %8, align 4, !tbaa !16
  %37 = icmp sge i32 %36, 0
  br i1 %37, label %38, label %56

38:                                               ; preds = %26
  %39 = load ptr, ptr %4, align 8, !tbaa !14
  %40 = getelementptr inbounds nuw %struct.AVFormatContext, ptr %39, i32 0, i32 4
  %41 = load ptr, ptr %40, align 8, !tbaa !124
  %42 = icmp ne ptr %41, null
  br i1 %42, label %43, label %56

43:                                               ; preds = %38
  %44 = load ptr, ptr %4, align 8, !tbaa !14
  %45 = getelementptr inbounds nuw %struct.AVFormatContext, ptr %44, i32 0, i32 4
  %46 = load ptr, ptr %45, align 8, !tbaa !124
  %47 = getelementptr inbounds nuw %struct.AVIOContext, ptr %46, i32 0, i32 11
  %48 = load i32, ptr %47, align 4, !tbaa !125
  %49 = icmp slt i32 %48, 0
  br i1 %49, label %50, label %56

50:                                               ; preds = %43
  %51 = load ptr, ptr %4, align 8, !tbaa !14
  %52 = getelementptr inbounds nuw %struct.AVFormatContext, ptr %51, i32 0, i32 4
  %53 = load ptr, ptr %52, align 8, !tbaa !124
  %54 = getelementptr inbounds nuw %struct.AVIOContext, ptr %53, i32 0, i32 11
  %55 = load i32, ptr %54, align 4, !tbaa !125
  store i32 %55, ptr %8, align 4, !tbaa !16
  br label %56

56:                                               ; preds = %50, %43, %38, %26
  %57 = load i32, ptr %8, align 4, !tbaa !16
  store i32 %57, ptr %3, align 4
  store i32 1, ptr %9, align 4
  br label %111

58:                                               ; preds = %17
  store i32 1, ptr %3, align 4
  store i32 1, ptr %9, align 4
  br label %111

59:                                               ; preds = %2
  %60 = load ptr, ptr %5, align 8, !tbaa !128
  %61 = getelementptr inbounds nuw %struct.AVPacket, ptr %60, i32 0, i32 6
  %62 = load i32, ptr %61, align 8, !tbaa !143
  %63 = and i32 %62, 8192
  %64 = icmp ne i32 %63, 0
  br i1 %64, label %65, label %67

65:                                               ; preds = %59
  %66 = load ptr, ptr %5, align 8, !tbaa !128
  store ptr %66, ptr %7, align 8, !tbaa !128
  br label %104

67:                                               ; preds = %59
  %68 = load ptr, ptr %5, align 8, !tbaa !128
  %69 = getelementptr inbounds nuw %struct.AVPacket, ptr %68, i32 0, i32 3
  %70 = load ptr, ptr %69, align 8, !tbaa !164
  %71 = load ptr, ptr %7, align 8, !tbaa !128
  %72 = getelementptr inbounds nuw %struct.AVPacket, ptr %71, i32 0, i32 3
  store ptr %70, ptr %72, align 8, !tbaa !164
  %73 = load ptr, ptr %5, align 8, !tbaa !128
  %74 = getelementptr inbounds nuw %struct.AVPacket, ptr %73, i32 0, i32 4
  %75 = load i32, ptr %74, align 8, !tbaa !139
  %76 = load ptr, ptr %7, align 8, !tbaa !128
  %77 = getelementptr inbounds nuw %struct.AVPacket, ptr %76, i32 0, i32 4
  store i32 %75, ptr %77, align 8, !tbaa !139
  %78 = load ptr, ptr %7, align 8, !tbaa !128
  %79 = load ptr, ptr %5, align 8, !tbaa !128
  %80 = call i32 @av_packet_copy_props(ptr noundef %78, ptr noundef %79)
  store i32 %80, ptr %8, align 4, !tbaa !16
  %81 = load i32, ptr %8, align 4, !tbaa !16
  %82 = icmp slt i32 %81, 0
  br i1 %82, label %83, label %85

83:                                               ; preds = %67
  %84 = load i32, ptr %8, align 4, !tbaa !16
  store i32 %84, ptr %3, align 4
  store i32 1, ptr %9, align 4
  br label %111

85:                                               ; preds = %67
  %86 = load ptr, ptr %5, align 8, !tbaa !128
  %87 = getelementptr inbounds nuw %struct.AVPacket, ptr %86, i32 0, i32 0
  %88 = load ptr, ptr %87, align 8, !tbaa !165
  %89 = icmp ne ptr %88, null
  br i1 %89, label %90, label %103

90:                                               ; preds = %85
  %91 = load ptr, ptr %5, align 8, !tbaa !128
  %92 = getelementptr inbounds nuw %struct.AVPacket, ptr %91, i32 0, i32 0
  %93 = load ptr, ptr %92, align 8, !tbaa !165
  %94 = call ptr @av_buffer_ref(ptr noundef %93)
  %95 = load ptr, ptr %7, align 8, !tbaa !128
  %96 = getelementptr inbounds nuw %struct.AVPacket, ptr %95, i32 0, i32 0
  store ptr %94, ptr %96, align 8, !tbaa !165
  %97 = load ptr, ptr %7, align 8, !tbaa !128
  %98 = getelementptr inbounds nuw %struct.AVPacket, ptr %97, i32 0, i32 0
  %99 = load ptr, ptr %98, align 8, !tbaa !165
  %100 = icmp ne ptr %99, null
  br i1 %100, label %102, label %101

101:                                              ; preds = %90
  store i32 -12, ptr %8, align 4, !tbaa !16
  br label %108

102:                                              ; preds = %90
  br label %103

103:                                              ; preds = %102, %85
  br label %104

104:                                              ; preds = %103, %65
  %105 = load ptr, ptr %4, align 8, !tbaa !14
  %106 = load ptr, ptr %7, align 8, !tbaa !128
  %107 = call i32 @write_packets_common(ptr noundef %105, ptr noundef %106, i32 noundef 0)
  store i32 %107, ptr %8, align 4, !tbaa !16
  br label %108

108:                                              ; preds = %104, %101
  %109 = load ptr, ptr %7, align 8, !tbaa !128
  call void @av_packet_unref(ptr noundef %109)
  %110 = load i32, ptr %8, align 4, !tbaa !16
  store i32 %110, ptr %3, align 4
  store i32 1, ptr %9, align 4
  br label %111

111:                                              ; preds = %108, %83, %58, %56
  call void @llvm.lifetime.end.p0(i64 4, ptr %8) #11
  call void @llvm.lifetime.end.p0(i64 8, ptr %7) #11
  call void @llvm.lifetime.end.p0(i64 8, ptr %6) #11
  %112 = load i32, ptr %3, align 4
  ret i32 %112
}