; Function Attrs: nounwind uwtable
define i32 @av_write_frame(ptr noundef %0, ptr noundef %1) local_unnamed_addr #0 {
  %3 = getelementptr inbounds nuw i8, ptr %0, i64 504
  %4 = load ptr, ptr %3, align 8, !tbaa !142
  %.not = icmp eq ptr %1, null
  br i1 %.not, label %5, label %44

5:                                                ; preds = %2
  %6 = getelementptr inbounds nuw i8, ptr %0, i64 16
  %7 = load ptr, ptr %6, align 8, !tbaa !9
  %8 = getelementptr inbounds nuw i8, ptr %7, i64 68
  %9 = load i32, ptr %8, align 4, !tbaa !57
  %10 = and i32 %9, 2
  %.not40 = icmp eq i32 %10, 0
  br i1 %.not40, label %64, label %11

11:                                               ; preds = %5
  %12 = getelementptr inbounds nuw i8, ptr %7, i64 80
  %13 = load ptr, ptr %12, align 8, !tbaa !143
  %14 = tail call i32 %13(ptr noundef nonnull %0, ptr noundef null) #13
  %15 = getelementptr inbounds nuw i8, ptr %0, i64 32
  %16 = load ptr, ptr %15, align 8, !tbaa !111
  %.not.i = icmp eq ptr %16, null
  br i1 %.not.i, label %flush_if_needed.exit, label %17

17:                                               ; preds = %11
  %18 = getelementptr inbounds nuw i8, ptr %16, i64 84
  %19 = load i32, ptr %18, align 4, !tbaa !112
  %20 = icmp sgt i32 %19, -1
  br i1 %20, label %21, label %flush_if_needed.exit

21:                                               ; preds = %17
  %22 = getelementptr inbounds nuw i8, ptr %0, i64 320
  %23 = load i32, ptr %22, align 8, !tbaa !114
  %24 = icmp eq i32 %23, 1
  br i1 %24, label %29, label %25

25:                                               ; preds = %21
  %26 = getelementptr inbounds nuw i8, ptr %0, i64 128
  %27 = load i32, ptr %26, align 8, !tbaa !93
  %28 = and i32 %27, 512
  %.not9.i = icmp eq i32 %28, 0
  br i1 %.not9.i, label %30, label %29

29:                                               ; preds = %25, %21
  tail call void @avio_flush(ptr noundef nonnull %16) #13
  br label %flush_if_needed.exit

30:                                               ; preds = %25
  %.not10.i = icmp eq i32 %23, 0
  br i1 %.not10.i, label %flush_if_needed.exit, label %31

31:                                               ; preds = %30
  %32 = load ptr, ptr %6, align 8, !tbaa !9
  %33 = getelementptr inbounds nuw i8, ptr %32, i64 44
  %34 = load i32, ptr %33, align 4, !tbaa !109
  %35 = and i32 %34, 1
  %.not11.i = icmp eq i32 %35, 0
  br i1 %.not11.i, label %36, label %flush_if_needed.exit

36:                                               ; preds = %31
  tail call void @avio_write_marker(ptr noundef nonnull %16, i64 noundef -9223372036854775808, i32 noundef 5) #13
  br label %flush_if_needed.exit

flush_if_needed.exit:                             ; preds = %11, %17, %29, %30, %31, %36
  %37 = icmp sgt i32 %14, -1
  br i1 %37, label %38, label %64

38:                                               ; preds = %flush_if_needed.exit
  %39 = load ptr, ptr %15, align 8, !tbaa !111
  %.not41 = icmp eq ptr %39, null
  br i1 %.not41, label %64, label %40

40:                                               ; preds = %38
  %41 = getelementptr inbounds nuw i8, ptr %39, i64 84
  %42 = load i32, ptr %41, align 4, !tbaa !112
  %43 = icmp slt i32 %42, 0
  %spec.select = select i1 %43, i32 %42, i32 %14
  br label %64

44:                                               ; preds = %2
  %45 = getelementptr inbounds nuw i8, ptr %1, i64 40
  %46 = load i32, ptr %45, align 8, !tbaa !123
  %47 = and i32 %46, 8192
  %.not42 = icmp eq i32 %47, 0
  br i1 %.not42, label %48, label %61

48:                                               ; preds = %44
  %49 = getelementptr inbounds nuw i8, ptr %1, i64 24
  %50 = load ptr, ptr %49, align 8, !tbaa !144
  %51 = getelementptr inbounds nuw i8, ptr %4, i64 24
  store ptr %50, ptr %51, align 8, !tbaa !144
  %52 = getelementptr inbounds nuw i8, ptr %1, i64 32
  %53 = load i32, ptr %52, align 8, !tbaa !119
  %54 = getelementptr inbounds nuw i8, ptr %4, i64 32
  store i32 %53, ptr %54, align 8, !tbaa !119
  %55 = tail call i32 @av_packet_copy_props(ptr noundef %4, ptr noundef nonnull %1) #13
  %56 = icmp slt i32 %55, 0
  br i1 %56, label %64, label %57

57:                                               ; preds = %48
  %58 = load ptr, ptr %1, align 8, !tbaa !145
  %.not43 = icmp eq ptr %58, null
  br i1 %.not43, label %61, label %59

59:                                               ; preds = %57
  %60 = tail call ptr @av_buffer_ref(ptr noundef nonnull %58) #13
  store ptr %60, ptr %4, align 8, !tbaa !145
  %.not44 = icmp eq ptr %60, null
  br i1 %.not44, label %63, label %61

61:                                               ; preds = %44, %57, %59
  %.030 = phi ptr [ %4, %59 ], [ %4, %57 ], [ %1, %44 ]
  %62 = tail call fastcc i32 @write_packets_common(ptr noundef nonnull %0, ptr noundef nonnull %.030, i32 noundef 0)
  br label %63

63:                                               ; preds = %59, %61
  %.131 = phi ptr [ %.030, %61 ], [ %4, %59 ]
  %.1 = phi i32 [ %62, %61 ], [ -12, %59 ]
  tail call void @av_packet_unref(ptr noundef nonnull %.131) #13
  br label %64

64:                                               ; preds = %40, %48, %5, %flush_if_needed.exit, %38, %63
  %.032 = phi i32 [ %.1, %63 ], [ %14, %38 ], [ %14, %flush_if_needed.exit ], [ %spec.select, %40 ], [ 1, %5 ], [ %55, %48 ]
  ret i32 %.032
}